target datalayout = "e-m:e-p270:32:32-p271:32:32-p272:64:64-i64:64-i128:128-f80:128-n8:16:32:64-S128"
target triple = "x86_64-pc-linux-gnu"

%"struct.cv::utils::trace::details::Region::LocationStaticStorage" = type { ptr, ptr, ptr, i32, i32 }
%"class.cv::utils::trace::details::Region" = type <{ ptr, i32, [4 x i8] }>
%"struct.cv::RGB2XYZ_f" = type { i32, [9 x float] }
%"class.cv::Range" = type { i32, i32 }
%"class.cv::ParallelLoopBody" = type { ptr }
%"class.cv::impl::(anonymous namespace)::CvtColorLoop_Invoker.6" = type { %"class.cv::ParallelLoopBody", ptr, i64, ptr, i64, i32, ptr }

@_ZZNK2cv9RGB2XYZ_fIfEclEPKfPfiE25__cv_trace_location_fn201 = linkonce_odr hidden constant %"struct.cv::utils::trace::details::Region::LocationStaticStorage" { ptr @_ZZNK2cv9RGB2XYZ_fIfEclEPKfPfiE31__cv_trace_location_extra_fn201, ptr @.str.38, ptr @.str.19, i32 201, i32 1 }, comdat, align 8

; Function Attrs: inlinehint mustprogress nounwind uwtable
define internal noundef float @_ZN2cvL13saturate_castIfEET_f(float noundef %0) #5 {
  %2 = alloca float, align 4
  store float %0, ptr %2, align 4, !tbaa !9
  %3 = load float, ptr %2, align 4, !tbaa !9
  ret float %3
}

; Function Attrs: mustprogress uwtable
define linkonce_odr hidden void @_ZNK2cv9RGB2XYZ_fIfEclEPKfPfi(ptr noundef nonnull align 4 dereferenceable(40) %0, ptr noundef %1, ptr noundef %2, i32 noundef %3) #1 comdat align 2 personality ptr @__gxx_personality_v0 {
  %5 = alloca ptr, align 8
  %6 = alloca ptr, align 8
  %7 = alloca ptr, align 8
  %8 = alloca i32, align 4
  %9 = alloca %"class.cv::utils::trace::details::Region", align 8
  %10 = alloca i32, align 4
  %11 = alloca float, align 4
  %12 = alloca float, align 4
  %13 = alloca float, align 4
  %14 = alloca float, align 4
  %15 = alloca float, align 4
  %16 = alloca float, align 4
  %17 = alloca float, align 4
  %18 = alloca float, align 4
  %19 = alloca float, align 4
  %20 = alloca i32, align 4
  %21 = alloca float, align 4
  %22 = alloca float, align 4
  %23 = alloca float, align 4
  %24 = alloca float, align 4
  %25 = alloca ptr, align 8
  %26 = alloca i32, align 4
  %27 = alloca float, align 4
  %28 = alloca float, align 4
  store ptr %0, ptr %5, align 8, !tbaa !40
  store ptr %1, ptr %6, align 8, !tbaa !29
  store ptr %2, ptr %7, align 8, !tbaa !29
  store i32 %3, ptr %8, align 4, !tbaa !20
  %29 = load ptr, ptr %5, align 8
  call void @llvm.lifetime.start.p0(i64 16, ptr %9) #12
  call void @_ZN2cv5utils5trace7details6RegionC1ERKNS3_21LocationStaticStorageE(ptr noundef nonnull align 8 dereferenceable(12) %9, ptr noundef nonnull align 8 dereferenceable(32) @_ZZNK2cv9RGB2XYZ_fIfEclEPKfPfiE25__cv_trace_location_fn201)
  call void @llvm.lifetime.start.p0(i64 4, ptr %10) #12
  %30 = getelementptr inbounds nuw %"struct.cv::RGB2XYZ_f", ptr %29, i32 0, i32 0
  %31 = load i32, ptr %30, align 4, !tbaa !42
  store i32 %31, ptr %10, align 4, !tbaa !20
  call void @llvm.lifetime.start.p0(i64 4, ptr %11) #12
  %32 = getelementptr inbounds nuw %"struct.cv::RGB2XYZ_f", ptr %29, i32 0, i32 1
  %33 = getelementptr inbounds [9 x float], ptr %32, i64 0, i64 0
  %34 = load float, ptr %33, align 4, !tbaa !9
  store float %34, ptr %11, align 4, !tbaa !9
  call void @llvm.lifetime.start.p0(i64 4, ptr %12) #12
  %35 = getelementptr inbounds nuw %"struct.cv::RGB2XYZ_f", ptr %29, i32 0, i32 1
  %36 = getelementptr inbounds [9 x float], ptr %35, i64 0, i64 1
  %37 = load float, ptr %36, align 4, !tbaa !9
  store float %37, ptr %12, align 4, !tbaa !9
  call void @llvm.lifetime.start.p0(i64 4, ptr %13) #12
  %38 = getelementptr inbounds nuw %"struct.cv::RGB2XYZ_f", ptr %29, i32 0, i32 1
  %39 = getelementptr inbounds [9 x float], ptr %38, i64 0, i64 2
  %40 = load float, ptr %39, align 4, !tbaa !9
  store float %40, ptr %13, align 4, !tbaa !9
  call void @llvm.lifetime.start.p0(i64 4, ptr %14) #12
  %41 = getelementptr inbounds nuw %"struct.cv::RGB2XYZ_f", ptr %29, i32 0, i32 1
  %42 = getelementptr inbounds [9 x float], ptr %41, i64 0, i64 3
  %43 = load float, ptr %42, align 4, !tbaa !9
  store float %43, ptr %14, align 4, !tbaa !9
  call void @llvm.lifetime.start.p0(i64 4, ptr %15) #12
  %44 = getelementptr inbounds nuw %"struct.cv::RGB2XYZ_f", ptr %29, i32 0, i32 1
  %45 = getelementptr inbounds [9 x float], ptr %44, i64 0, i64 4
  %46 = load float, ptr %45, align 4, !tbaa !9
  store float %46, ptr %15, align 4, !tbaa !9
  call void @llvm.lifetime.start.p0(i64 4, ptr %16) #12
  %47 = getelementptr inbounds nuw %"struct.cv::RGB2XYZ_f", ptr %29, i32 0, i32 1
  %48 = getelementptr inbounds [9 x float], ptr %47, i64 0, i64 5
  %49 = load float, ptr %48, align 4, !tbaa !9
  store float %49, ptr %16, align 4, !tbaa !9
  call void @llvm.lifetime.start.p0(i64 4, ptr %17) #12
  %50 = getelementptr inbounds nuw %"struct.cv::RGB2XYZ_f", ptr %29, i32 0, i32 1
  %51 = getelementptr inbounds [9 x float], ptr %50, i64 0, i64 6
  %52 = load float, ptr %51, align 4, !tbaa !9
  store float %52, ptr %17, align 4, !tbaa !9
  call void @llvm.lifetime.start.p0(i64 4, ptr %18) #12
  %53 = getelementptr inbounds nuw %"struct.cv::RGB2XYZ_f", ptr %29, i32 0, i32 1
  %54 = getelementptr inbounds [9 x float], ptr %53, i64 0, i64 7
  %55 = load float, ptr %54, align 4, !tbaa !9
  store float %55, ptr %18, align 4, !tbaa !9
  call void @llvm.lifetime.start.p0(i64 4, ptr %19) #12
  %56 = getelementptr inbounds nuw %"struct.cv::RGB2XYZ_f", ptr %29, i32 0, i32 1
  %57 = getelementptr inbounds [9 x float], ptr %56, i64 0, i64 8
  %58 = load float, ptr %57, align 4, !tbaa !9
  store float %58, ptr %19, align 4, !tbaa !9
  call void @llvm.lifetime.start.p0(i64 4, ptr %20) #12
  store i32 0, ptr %20, align 4, !tbaa !20
  br label %59

59:                                               ; preds = %115, %4
  %60 = load i32, ptr %20, align 4, !tbaa !20
  %61 = load i32, ptr %8, align 4, !tbaa !20
  %62 = icmp slt i32 %60, %61
  br i1 %62, label %63, label %138

63:                                               ; preds = %59
  call void @llvm.lifetime.start.p0(i64 4, ptr %21) #12
  %64 = load ptr, ptr %6, align 8, !tbaa !29
  %65 = getelementptr inbounds float, ptr %64, i64 0
  %66 = load float, ptr %65, align 4, !tbaa !9
  store float %66, ptr %21, align 4, !tbaa !9
  call void @llvm.lifetime.start.p0(i64 4, ptr %22) #12
  %67 = load ptr, ptr %6, align 8, !tbaa !29
  %68 = getelementptr inbounds float, ptr %67, i64 1
  %69 = load float, ptr %68, align 4, !tbaa !9
  store float %69, ptr %22, align 4, !tbaa !9
  call void @llvm.lifetime.start.p0(i64 4, ptr %23) #12
  %70 = load ptr, ptr %6, align 8, !tbaa !29
  %71 = getelementptr inbounds float, ptr %70, i64 2
  %72 = load float, ptr %71, align 4, !tbaa !9
  store float %72, ptr %23, align 4, !tbaa !9
  call void @llvm.lifetime.start.p0(i64 4, ptr %24) #12
  %73 = load float, ptr %21, align 4, !tbaa !9
  %74 = load float, ptr %11, align 4, !tbaa !9
  %75 = load float, ptr %22, align 4, !tbaa !9
  %76 = load float, ptr %12, align 4, !tbaa !9
  %77 = fmul float %75, %76
  %78 = call float @llvm.fmuladd.f32(float %73, float %74, float %77)
  %79 = load float, ptr %23, align 4, !tbaa !9
  %80 = load float, ptr %13, align 4, !tbaa !9
  %81 = call float @llvm.fmuladd.f32(float %79, float %80, float %78)
  %82 = invoke noundef float @_ZN2cvL13saturate_castIfEET_f(float noundef %81)
          to label %83 unwind label %124

83:                                               ; preds = %63
  store float %82, ptr %24, align 4, !tbaa !9
  call void @llvm.lifetime.start.p0(i64 4, ptr %27) #12
  %84 = load float, ptr %21, align 4, !tbaa !9
  %85 = load float, ptr %14, align 4, !tbaa !9
  %86 = load float, ptr %22, align 4, !tbaa !9
  %87 = load float, ptr %15, align 4, !tbaa !9
  %88 = fmul float %86, %87
  %89 = call float @llvm.fmuladd.f32(float %84, float %85, float %88)
  %90 = load float, ptr %23, align 4, !tbaa !9
  %91 = load float, ptr %16, align 4, !tbaa !9
  %92 = call float @llvm.fmuladd.f32(float %90, float %91, float %89)
  %93 = invoke noundef float @_ZN2cvL13saturate_castIfEET_f(float noundef %92)
          to label %94 unwind label %128

94:                                               ; preds = %83
  store float %93, ptr %27, align 4, !tbaa !9
  call void @llvm.lifetime.start.p0(i64 4, ptr %28) #12
  %95 = load float, ptr %21, align 4, !tbaa !9
  %96 = load float, ptr %17, align 4, !tbaa !9
  %97 = load float, ptr %22, align 4, !tbaa !9
  %98 = load float, ptr %18, align 4, !tbaa !9
  %99 = fmul float %97, %98
  %100 = call float @llvm.fmuladd.f32(float %95, float %96, float %99)
  %101 = load float, ptr %23, align 4, !tbaa !9
  %102 = load float, ptr %19, align 4, !tbaa !9
  %103 = call float @llvm.fmuladd.f32(float %101, float %102, float %100)
  %104 = invoke noundef float @_ZN2cvL13saturate_castIfEET_f(float noundef %103)
          to label %105 unwind label %132

105:                                              ; preds = %94
  store float %104, ptr %28, align 4, !tbaa !9
  %106 = load float, ptr %24, align 4, !tbaa !9
  %107 = load ptr, ptr %7, align 8, !tbaa !29
  %108 = getelementptr inbounds float, ptr %107, i64 0
  store float %106, ptr %108, align 4, !tbaa !9
  %109 = load float, ptr %27, align 4, !tbaa !9
  %110 = load ptr, ptr %7, align 8, !tbaa !29
  %111 = getelementptr inbounds float, ptr %110, i64 1
  store float %109, ptr %111, align 4, !tbaa !9
  %112 = load float, ptr %28, align 4, !tbaa !9
  %113 = load ptr, ptr %7, align 8, !tbaa !29
  %114 = getelementptr inbounds float, ptr %113, i64 2
  store float %112, ptr %114, align 4, !tbaa !9
  call void @llvm.lifetime.end.p0(i64 4, ptr %28) #12
  call void @llvm.lifetime.end.p0(i64 4, ptr %27) #12
  call void @llvm.lifetime.end.p0(i64 4, ptr %24) #12
  call void @llvm.lifetime.end.p0(i64 4, ptr %23) #12
  call void @llvm.lifetime.end.p0(i64 4, ptr %22) #12
  call void @llvm.lifetime.end.p0(i64 4, ptr %21) #12
  br label %115

115:                                              ; preds = %105
  %116 = load i32, ptr %20, align 4, !tbaa !20
  %117 = add nsw i32 %116, 1
  store i32 %117, ptr %20, align 4, !tbaa !20
  %118 = load i32, ptr %10, align 4, !tbaa !20
  %119 = load ptr, ptr %6, align 8, !tbaa !29
  %120 = sext i32 %118 to i64
  %121 = getelementptr inbounds float, ptr %119, i64 %120
  store ptr %121, ptr %6, align 8, !tbaa !29
  %122 = load ptr, ptr %7, align 8, !tbaa !29
  %123 = getelementptr inbounds float, ptr %122, i64 3
  store ptr %123, ptr %7, align 8, !tbaa !29
  br label %59, !llvm.loop !327

124:                                              ; preds = %63
  %125 = landingpad { ptr, i32 }
          cleanup
  %126 = extractvalue { ptr, i32 } %125, 0
  store ptr %126, ptr %25, align 8
  %127 = extractvalue { ptr, i32 } %125, 1
  store i32 %127, ptr %26, align 4
  br label %137

128:                                              ; preds = %83
  %129 = landingpad { ptr, i32 }
          cleanup
  %130 = extractvalue { ptr, i32 } %129, 0
  store ptr %130, ptr %25, align 8
  %131 = extractvalue { ptr, i32 } %129, 1
  store i32 %131, ptr %26, align 4
  br label %136

132:                                              ; preds = %94
  %133 = landingpad { ptr, i32 }
          cleanup
  %134 = extractvalue { ptr, i32 } %133, 0
  store ptr %134, ptr %25, align 8
  %135 = extractvalue { ptr, i32 } %133, 1
  store i32 %135, ptr %26, align 4
  call void @llvm.lifetime.end.p0(i64 4, ptr %28) #12
  br label %136

136:                                              ; preds = %132, %128
  call void @llvm.lifetime.end.p0(i64 4, ptr %27) #12
  br label %137

137:                                              ; preds = %136, %124
  call void @llvm.lifetime.end.p0(i64 4, ptr %24) #12
  call void @llvm.lifetime.end.p0(i64 4, ptr %23) #12
  call void @llvm.lifetime.end.p0(i64 4, ptr %22) #12
  call void @llvm.lifetime.end.p0(i64 4, ptr %21) #12
  call void @llvm.lifetime.end.p0(i64 4, ptr %20) #12
  call void @llvm.lifetime.end.p0(i64 4, ptr %19) #12
  call void @llvm.lifetime.end.p0(i64 4, ptr %18) #12
  call void @llvm.lifetime.end.p0(i64 4, ptr %17) #12
  call void @llvm.lifetime.end.p0(i64 4, ptr %16) #12
  call void @llvm.lifetime.end.p0(i64 4, ptr %15) #12
  call void @llvm.lifetime.end.p0(i64 4, ptr %14) #12
  call void @llvm.lifetime.end.p0(i64 4, ptr %13) #12
  call void @llvm.lifetime.end.p0(i64 4, ptr %12) #12
  call void @llvm.lifetime.end.p0(i64 4, ptr %11) #12
  call void @llvm.lifetime.end.p0(i64 4, ptr %10) #12
  call void @_ZN2cv5utils5trace7details6RegionD2Ev(ptr noundef nonnull align 8 dereferenceable(12) %9) #12
  call void @llvm.lifetime.end.p0(i64 16, ptr %9) #12
  br label %139

138:                                              ; preds = %59
  call void @llvm.lifetime.end.p0(i64 4, ptr %20) #12
  call void @llvm.lifetime.end.p0(i64 4, ptr %19) #12
  call void @llvm.lifetime.end.p0(i64 4, ptr %18) #12
  call void @llvm.lifetime.end.p0(i64 4, ptr %17) #12
  call void @llvm.lifetime.end.p0(i64 4, ptr %16) #12
  call void @llvm.lifetime.end.p0(i64 4, ptr %15) #12
  call void @llvm.lifetime.end.p0(i64 4, ptr %14) #12
  call void @llvm.lifetime.end.p0(i64 4, ptr %13) #12
  call void @llvm.lifetime.end.p0(i64 4, ptr %12) #12
  call void @llvm.lifetime.end.p0(i64 4, ptr %11) #12
  call void @llvm.lifetime.end.p0(i64 4, ptr %10) #12
  call void @_ZN2cv5utils5trace7details6RegionD2Ev(ptr noundef nonnull align 8 dereferenceable(12) %9) #12
  call void @llvm.lifetime.end.p0(i64 16, ptr %9) #12
  ret void

139:                                              ; preds = %137
  %140 = load ptr, ptr %25, align 8
  %141 = load i32, ptr %26, align 4
  %142 = insertvalue { ptr, i32 } poison, ptr %140, 0
  %143 = insertvalue { ptr, i32 } %142, i32 %141, 1
  resume { ptr, i32 } %143
}

; Function Attrs: mustprogress uwtable
define internal void @_ZNK2cv4impl12_GLOBAL__N_120CvtColorLoop_InvokerINS_9RGB2XYZ_fIfEEEclERKNS_5RangeE(ptr noundef nonnull align 8 dereferenceable(56) %0, ptr noundef nonnull align 4 dereferenceable(8) %1) unnamed_addr #1 align 2 personality ptr @__gxx_personality_v0 {
  %3 = alloca ptr, align 8
  %4 = alloca ptr, align 8
  %5 = alloca %"class.cv::utils::trace::details::Region", align 8
  %6 = alloca ptr, align 8
  %7 = alloca ptr, align 8
  %8 = alloca i32, align 4
  %9 = alloca ptr, align 8
  %10 = alloca i32, align 4
  store ptr %0, ptr %3, align 8, !tbaa !317
  store ptr %1, ptr %4, align 8, !tbaa !285
  %11 = load ptr, ptr %3, align 8
  call void @llvm.lifetime.start.p0(i64 16, ptr %5) #12
  call void @_ZN2cv5utils5trace7details6RegionC1ERKNS3_21LocationStaticStorageE(ptr noundef nonnull align 8 dereferenceable(12) %5, ptr noundef nonnull align 8 dereferenceable(32) @_ZZNK2cv4impl12_GLOBAL__N_120CvtColorLoop_InvokerINS_9RGB2XYZ_fIfEEEclERKNS_5RangeEE25__cv_trace_location_fn146)
  call void @llvm.lifetime.start.p0(i64 8, ptr %6) #12
  %12 = getelementptr inbounds nuw %"class.cv::impl::(anonymous namespace)::CvtColorLoop_Invoker.6", ptr %11, i32 0, i32 1
  %13 = load ptr, ptr %12, align 8, !tbaa !319
  %14 = load ptr, ptr %4, align 8, !tbaa !285
  %15 = getelementptr inbounds nuw %"class.cv::Range", ptr %14, i32 0, i32 0
  %16 = load i32, ptr %15, align 4, !tbaa !287
  %17 = sext i32 %16 to i64
  %18 = getelementptr inbounds nuw %"class.cv::impl::(anonymous namespace)::CvtColorLoop_Invoker.6", ptr %11, i32 0, i32 2
  %19 = load i64, ptr %18, align 8, !tbaa !321
  %20 = mul i64 %17, %19
  %21 = getelementptr inbounds nuw i8, ptr %13, i64 %20
  store ptr %21, ptr %6, align 8, !tbaa !18
  call void @llvm.lifetime.start.p0(i64 8, ptr %7) #12
  %22 = getelementptr inbounds nuw %"class.cv::impl::(anonymous namespace)::CvtColorLoop_Invoker.6", ptr %11, i32 0, i32 3
  %23 = load ptr, ptr %22, align 8, !tbaa !322
  %24 = load ptr, ptr %4, align 8, !tbaa !285
  %25 = getelementptr inbounds nuw %"class.cv::Range", ptr %24, i32 0, i32 0
  %26 = load i32, ptr %25, align 4, !tbaa !287
  %27 = sext i32 %26 to i64
  %28 = getelementptr inbounds nuw %"class.cv::impl::(anonymous namespace)::CvtColorLoop_Invoker.6", ptr %11, i32 0, i32 4
  %29 = load i64, ptr %28, align 8, !tbaa !323
  %30 = mul i64 %27, %29
  %31 = getelementptr inbounds nuw i8, ptr %23, i64 %30
  store ptr %31, ptr %7, align 8, !tbaa !18
  call void @llvm.lifetime.start.p0(i64 4, ptr %8) #12
  %32 = load ptr, ptr %4, align 8, !tbaa !285
  %33 = getelementptr inbounds nuw %"class.cv::Range", ptr %32, i32 0, i32 0
  %34 = load i32, ptr %33, align 4, !tbaa !287
  store i32 %34, ptr %8, align 4, !tbaa !20
  br label %35

35:                                               ; preds = %50, %2
  %36 = load i32, ptr %8, align 4, !tbaa !20
  %37 = load ptr, ptr %4, align 8, !tbaa !285
  %38 = getelementptr inbounds nuw %"class.cv::Range", ptr %37, i32 0, i32 1
  %39 = load i32, ptr %38, align 4, !tbaa !289
  %40 = icmp slt i32 %36, %39
  br i1 %40, label %42, label %41

41:                                               ; preds = %35
  call void @llvm.lifetime.end.p0(i64 4, ptr %8) #12
  br label %65

42:                                               ; preds = %35
  %43 = getelementptr inbounds nuw %"class.cv::impl::(anonymous namespace)::CvtColorLoop_Invoker.6", ptr %11, i32 0, i32 6
  %44 = load ptr, ptr %43, align 8, !tbaa !325
  %45 = load ptr, ptr %6, align 8, !tbaa !18
  %46 = load ptr, ptr %7, align 8, !tbaa !18
  %47 = getelementptr inbounds nuw %"class.cv::impl::(anonymous namespace)::CvtColorLoop_Invoker.6", ptr %11, i32 0, i32 5
  %48 = load i32, ptr %47, align 8, !tbaa !324
  invoke void @_ZNK2cv9RGB2XYZ_fIfEclEPKfPfi(ptr noundef nonnull align 4 dereferenceable(40) %44, ptr noundef %45, ptr noundef %46, i32 noundef %48)
          to label %49 unwind label %61

49:                                               ; preds = %42
  br label %50

50:                                               ; preds = %49
  %51 = load i32, ptr %8, align 4, !tbaa !20
  %52 = add nsw i32 %51, 1
  store i32 %52, ptr %8, align 4, !tbaa !20
  %53 = getelementptr inbounds nuw %"class.cv::impl::(anonymous namespace)::CvtColorLoop_Invoker.6", ptr %11, i32 0, i32 2
  %54 = load i64, ptr %53, align 8, !tbaa !321
  %55 = load ptr, ptr %6, align 8, !tbaa !18
  %56 = getelementptr inbounds nuw i8, ptr %55, i64 %54
  store ptr %56, ptr %6, align 8, !tbaa !18
  %57 = getelementptr inbounds nuw %"class.cv::impl::(anonymous namespace)::CvtColorLoop_Invoker.6", ptr %11, i32 0, i32 4
  %58 = load i64, ptr %57, align 8, !tbaa !323
  %59 = load ptr, ptr %7, align 8, !tbaa !18
  %60 = getelementptr inbounds nuw i8, ptr %59, i64 %58
  store ptr %60, ptr %7, align 8, !tbaa !18
  br label %35, !llvm.loop !326

61:                                               ; preds = %42
  %62 = landingpad { ptr, i32 }
          cleanup
  %63 = extractvalue { ptr, i32 } %62, 0
  store ptr %63, ptr %9, align 8
  %64 = extractvalue { ptr, i32 } %62, 1
  store i32 %64, ptr %10, align 4
  call void @llvm.lifetime.end.p0(i64 4, ptr %8) #12
  call void @llvm.lifetime.end.p0(i64 8, ptr %7) #12
  call void @llvm.lifetime.end.p0(i64 8, ptr %6) #12
  call void @_ZN2cv5utils5trace7details6RegionD2Ev(ptr noundef nonnull align 8 dereferenceable(12) %5) #12
  call void @llvm.lifetime.end.p0(i64 16, ptr %5) #12
  br label %66

65:                                               ; preds = %41
  call void @llvm.lifetime.end.p0(i64 8, ptr %7) #12
  call void @llvm.lifetime.end.p0(i64 8, ptr %6) #12
  call void @_ZN2cv5utils5trace7details6RegionD2Ev(ptr noundef nonnull align 8 dereferenceable(12) %5) #12
  call void @llvm.lifetime.end.p0(i64 16, ptr %5) #12
  ret void

66:                                               ; preds = %61
  %67 = load ptr, ptr %9, align 8
  %68 = load i32, ptr %10, align 4
  %69 = insertvalue { ptr, i32 } poison, ptr %67, 0
  %70 = insertvalue { ptr, i32 } %69, i32 %68, 1
  resume { ptr, i32 } %70
}