; Function Attrs: mustprogress uwtable
define internal void @_ZNK2cv4impl12_GLOBAL__N_120CvtColorLoop_InvokerINS_9RGB2XYZ_fIfEEEclERKNS_5RangeE(ptr noundef nonnull readonly align 8 captures(none) dereferenceable(56) %0, ptr noundef nonnull readonly align 4 captures(none) dereferenceable(8) %1) unnamed_addr #5 align 2 personality ptr @__gxx_personality_v0 {
  %3 = alloca %"class.cv::utils::trace::details::Region", align 8
  %4 = alloca %"class.cv::utils::trace::details::Region", align 8
  call void @llvm.lifetime.start.p0(i64 16, ptr nonnull %4) #22
  call void @_ZN2cv5utils5trace7details6RegionC1ERKNS3_21LocationStaticStorageE(ptr noundef nonnull align 8 dereferenceable(12) %4, ptr noundef nonnull align 8 dereferenceable(32) @_ZZNK2cv4impl12_GLOBAL__N_120CvtColorLoop_InvokerINS_9RGB2XYZ_fIfEEEclERKNS_5RangeEE25__cv_trace_location_fn146)
  %5 = load i32, ptr %1, align 4, !tbaa !9
  %6 = getelementptr inbounds nuw i8, ptr %0, i64 16
  %7 = getelementptr inbounds nuw i8, ptr %0, i64 32
  %8 = getelementptr inbounds nuw i8, ptr %1, i64 4
  %9 = load i32, ptr %8, align 4, !tbaa !11
  %10 = icmp slt i32 %5, %9
  br i1 %10, label %.lr.ph, label %._crit_edge

.lr.ph:                                           ; preds = %2
  %11 = getelementptr inbounds nuw i8, ptr %0, i64 24
  %12 = load ptr, ptr %11, align 8, !tbaa !48
  %13 = load i64, ptr %7, align 8, !tbaa !49
  %14 = sext i32 %5 to i64
  %15 = mul i64 %13, %14
  %16 = getelementptr inbounds nuw i8, ptr %12, i64 %15
  %17 = getelementptr inbounds nuw i8, ptr %0, i64 8
  %18 = load ptr, ptr %17, align 8, !tbaa !44
  %19 = load i64, ptr %6, align 8, !tbaa !47
  %20 = mul i64 %19, %14
  %21 = getelementptr inbounds nuw i8, ptr %18, i64 %20
  %22 = getelementptr inbounds nuw i8, ptr %0, i64 48
  %23 = getelementptr inbounds nuw i8, ptr %0, i64 40
  %24 = getelementptr inbounds nuw i8, ptr %3, i64 8
  br label %31

._crit_edge:                                      ; preds = %80, %2
  %25 = getelementptr inbounds nuw i8, ptr %4, i64 8
  %26 = load i32, ptr %25, align 8, !tbaa !52
  %.not.i = icmp eq i32 %26, 0
  br i1 %.not.i, label %_ZN2cv5utils5trace7details6RegionD2Ev.exit, label %27

27:                                               ; preds = %._crit_edge
  invoke void @_ZN2cv5utils5trace7details6Region7destroyEv(ptr noundef nonnull align 8 dereferenceable(12) %4)
          to label %_ZN2cv5utils5trace7details6RegionD2Ev.exit unwind label %28

28:                                               ; preds = %27
  %29 = landingpad { ptr, i32 }
          catch ptr null
  %30 = extractvalue { ptr, i32 } %29, 0
  call void @__clang_call_terminate(ptr %30) #23
  unreachable

_ZN2cv5utils5trace7details6RegionD2Ev.exit:       ; preds = %._crit_edge, %27
  call void @llvm.lifetime.end.p0(i64 16, ptr nonnull %4) #22
  ret void

31:                                               ; preds = %.lr.ph, %80
  %.016 = phi ptr [ %21, %.lr.ph ], [ %83, %80 ]
  %.01215 = phi ptr [ %16, %.lr.ph ], [ %85, %80 ]
  %.01314 = phi i32 [ %5, %.lr.ph ], [ %81, %80 ]
  %32 = load ptr, ptr %22, align 8, !tbaa !495
  %33 = load i32, ptr %23, align 8, !tbaa !50
  call void @llvm.lifetime.start.p0(i64 16, ptr nonnull %3) #22
  invoke void @_ZN2cv5utils5trace7details6RegionC1ERKNS3_21LocationStaticStorageE(ptr noundef nonnull align 8 dereferenceable(12) %3, ptr noundef nonnull align 8 dereferenceable(32) @_ZZNK2cv9RGB2XYZ_fIfEclEPKfPfiE25__cv_trace_location_fn201)
          to label %.noexc unwind label %88

.noexc:                                           ; preds = %31
  %34 = getelementptr inbounds nuw i8, ptr %32, i64 4
  %35 = load float, ptr %34, align 4, !tbaa !40
  %36 = getelementptr inbounds nuw i8, ptr %32, i64 8
  %37 = load float, ptr %36, align 4, !tbaa !40
  %38 = getelementptr inbounds nuw i8, ptr %32, i64 12
  %39 = load float, ptr %38, align 4, !tbaa !40
  %40 = getelementptr inbounds nuw i8, ptr %32, i64 16
  %41 = load float, ptr %40, align 4, !tbaa !40
  %42 = getelementptr inbounds nuw i8, ptr %32, i64 20
  %43 = load float, ptr %42, align 4, !tbaa !40
  %44 = getelementptr inbounds nuw i8, ptr %32, i64 24
  %45 = load float, ptr %44, align 4, !tbaa !40
  %46 = getelementptr inbounds nuw i8, ptr %32, i64 28
  %47 = load float, ptr %46, align 4, !tbaa !40
  %48 = getelementptr inbounds nuw i8, ptr %32, i64 32
  %49 = load float, ptr %48, align 4, !tbaa !40
  %50 = getelementptr inbounds nuw i8, ptr %32, i64 36
  %51 = load float, ptr %50, align 4, !tbaa !40
  %52 = icmp sgt i32 %33, 0
  br i1 %52, label %.lr.ph.i, label %._crit_edge.i

.lr.ph.i:                                         ; preds = %.noexc
  %53 = load i32, ptr %32, align 4, !tbaa !36
  %54 = sext i32 %53 to i64
  br label %55

55:                                               ; preds = %55, %.lr.ph.i
  %.037.i = phi ptr [ %.016, %.lr.ph.i ], [ %73, %55 ]
  %.03336.i = phi ptr [ %.01215, %.lr.ph.i ], [ %74, %55 ]
  %.03435.i = phi i32 [ 0, %.lr.ph.i ], [ %72, %55 ]
  %56 = load float, ptr %.037.i, align 4, !tbaa !40
  %57 = getelementptr inbounds nuw i8, ptr %.037.i, i64 4
  %58 = load float, ptr %57, align 4, !tbaa !40
  %59 = getelementptr inbounds nuw i8, ptr %.037.i, i64 8
  %60 = load float, ptr %59, align 4, !tbaa !40
  %61 = fmul float %37, %58
  %62 = call float @llvm.fmuladd.f32(float %56, float %35, float %61)
  %63 = call float @llvm.fmuladd.f32(float %60, float %39, float %62)
  %64 = fmul float %43, %58
  %65 = call float @llvm.fmuladd.f32(float %56, float %41, float %64)
  %66 = call float @llvm.fmuladd.f32(float %60, float %45, float %65)
  %67 = fmul float %49, %58
  %68 = call float @llvm.fmuladd.f32(float %56, float %47, float %67)
  %69 = call float @llvm.fmuladd.f32(float %60, float %51, float %68)
  store float %63, ptr %.03336.i, align 4, !tbaa !40
  %70 = getelementptr inbounds nuw i8, ptr %.03336.i, i64 4
  store float %66, ptr %70, align 4, !tbaa !40
  %71 = getelementptr inbounds nuw i8, ptr %.03336.i, i64 8
  store float %69, ptr %71, align 4, !tbaa !40
  %72 = add nuw nsw i32 %.03435.i, 1
  %73 = getelementptr inbounds float, ptr %.037.i, i64 %54
  %74 = getelementptr inbounds nuw i8, ptr %.03336.i, i64 12
  %exitcond.not.i = icmp eq i32 %72, %33
  br i1 %exitcond.not.i, label %._crit_edge.i, label %55, !llvm.loop !496

._crit_edge.i:                                    ; preds = %55, %.noexc
  %75 = load i32, ptr %24, align 8, !tbaa !52
  %.not.i.i = icmp eq i32 %75, 0
  br i1 %.not.i.i, label %80, label %76

76:                                               ; preds = %._crit_edge.i
  invoke void @_ZN2cv5utils5trace7details6Region7destroyEv(ptr noundef nonnull align 8 dereferenceable(12) %3)
          to label %80 unwind label %77

77:                                               ; preds = %76
  %78 = landingpad { ptr, i32 }
          catch ptr null
  %79 = extractvalue { ptr, i32 } %78, 0
  call void @__clang_call_terminate(ptr %79) #23
  unreachable

80:                                               ; preds = %76, %._crit_edge.i
  call void @llvm.lifetime.end.p0(i64 16, ptr nonnull %3) #22
  %81 = add nsw i32 %.01314, 1
  %82 = load i64, ptr %6, align 8, !tbaa !47
  %83 = getelementptr inbounds nuw i8, ptr %.016, i64 %82
  %84 = load i64, ptr %7, align 8, !tbaa !49
  %85 = getelementptr inbounds nuw i8, ptr %.01215, i64 %84
  %86 = load i32, ptr %8, align 4, !tbaa !11
  %87 = icmp slt i32 %81, %86
  br i1 %87, label %31, label %._crit_edge, !llvm.loop !497

88:                                               ; preds = %31
  %89 = landingpad { ptr, i32 }
          cleanup
  call void @_ZN2cv5utils5trace7details6RegionD2Ev(ptr noundef nonnull align 8 dereferenceable(12) %4) #22
  call void @llvm.lifetime.end.p0(i64 16, ptr nonnull %4) #22
  resume { ptr, i32 } %89
}